Certificate:
    Data:
        Version: 3 (0x2)
        Serial Number:
            79:c3:8a:b2:88:b4:5d:6b:0b:a5:81:75:86:e9:32:c1
        Signature Algorithm: sha256WithRSAEncryption
        Issuer: CN=Easy-RSA CA
        Validity
            Not Before: Mar 21 03:55:09 2022 GMT
            Not After : Jun 23 03:55:09 2024 GMT
        Subject: CN=benben-ios
        Subject Public Key Info:
            Public Key Algorithm: rsaEncryption
                RSA Public-Key: (2048 bit)
                Modulus:
                    00:d5:b3:46:28:ff:fb:f1:91:e7:16:98:59:e1:17:
                    3d:b5:8c:28:08:c2:39:fa:d3:cb:e9:56:eb:27:6a:
                    41:3c:86:22:c8:9d:9b:0a:40:ae:45:ab:66:46:60:
                    96:3c:0c:96:f3:24:b8:47:3b:e8:0d:62:11:ed:cb:
                    07:ff:ee:73:c2:3f:8e:c2:98:38:36:a3:c4:ef:9c:
                    a1:55:bb:ed:83:28:4e:32:47:1d:79:e6:b0:f5:82:
                    3e:cb:c8:04:e5:a8:43:55:04:a7:dc:28:b7:8f:3a:
                    69:91:a1:a2:29:a0:83:9f:4e:d7:aa:f4:2c:b9:46:
                    85:18:b2:1c:3e:1a:33:d2:62:fc:d3:cc:69:19:62:
                    2e:2b:4e:1c:c8:73:99:dc:a0:e6:99:ef:44:f0:38:
                    aa:64:84:56:46:96:7d:ff:20:f8:85:c5:49:1c:f1:
                    23:97:d6:7a:fa:19:16:7b:4b:06:23:0c:56:ce:d8:
                    fc:b3:94:db:2a:4f:90:e9:ec:cd:79:c6:62:fd:09:
                    21:e5:c3:8e:c8:c9:9d:92:70:1d:ab:16:26:33:6e:
                    51:d2:79:2f:37:8a:00:c1:9d:40:35:73:83:48:2d:
                    35:92:c4:c2:81:19:b0:00:1c:e0:77:3a:6f:5e:0a:
                    a6:e3:16:e4:a5:4c:d9:15:2c:df:4e:dc:01:63:89:
                    4f:41
                Exponent: 65537 (0x10001)
        X509v3 extensions:
            X509v3 Basic Constraints: 
                CA:FALSE
            X509v3 Subject Key Identifier: 
                08:C9:8A:8A:C0:4F:BF:7E:07:A6:F3:E4:D5:F2:81:FC:E1:9F:1E:16
            X509v3 Authority Key Identifier: 
                keyid:0B:CC:F5:05:FA:60:1B:6C:8C:5E:31:A0:13:B9:F1:CA:CB:39:3A:9F
                DirName:/CN=Easy-RSA CA
                serial:28:6F:7F:A1:11:81:EE:18:D6:C6:6D:E9:C0:62:0D:62:68:50:A0:57

            X509v3 Extended Key Usage: 
                TLS Web Client Authentication
            X509v3 Key Usage: 
                Digital Signature
    Signature Algorithm: sha256WithRSAEncryption
         ad:0e:18:4f:7a:be:d2:93:04:db:35:a4:f0:89:dc:ae:cc:fe:
         c2:b9:2a:44:71:a5:4f:d7:51:2b:fd:6b:c9:ec:ce:97:2f:e6:
         4e:44:cc:9e:89:73:7b:dc:ca:ba:09:9b:aa:aa:94:78:a4:33:
         2d:4f:7e:a4:08:85:af:30:f1:e7:ea:41:0f:f0:9f:02:20:eb:
         44:03:fe:20:7e:f9:b1:48:22:c4:1c:4f:5d:aa:b1:12:b8:7a:
         fe:b1:bf:11:92:eb:d1:a9:d7:97:18:5f:a5:80:ad:00:82:fa:
         92:21:aa:60:74:6f:c9:aa:0f:ff:69:cd:c1:35:b8:93:11:40:
         91:c7:0f:77:eb:89:5c:23:a0:72:5a:dd:1f:fd:fb:58:eb:ef:
         e5:a3:80:ed:3d:0a:58:e0:79:6f:af:e8:f4:6d:61:af:2c:15:
         d2:e5:6a:3c:16:c5:2a:ac:7c:03:87:19:db:70:52:0b:83:a5:
         67:2a:e2:9b:91:77:47:18:6d:81:c1:75:85:0d:5c:ca:2c:9e:
         0e:8c:35:46:6f:fc:c1:e6:5a:23:2c:2c:91:93:1b:1f:77:c3:
         81:79:cd:7b:1a:40:be:40:0b:c2:63:ba:53:2c:39:32:11:3b:
         55:ba:c2:06:15:24:f5:67:26:1a:65:a9:8d:b7:17:f0:99:c4:
         5b:1a:5e:8e
-----BEGIN CERTIFICATE-----
MIIDWDCCAkCgAwIBAgIQecOKsoi0XWsLpYF1hukywTANBgkqhkiG9w0BAQsFADAW
MRQwEgYDVQQDDAtFYXN5LVJTQSBDQTAeFw0yMjAzMjEwMzU1MDlaFw0yNDA2MjMw
MzU1MDlaMBUxEzARBgNVBAMMCmJlbmJlbi1pb3MwggEiMA0GCSqGSIb3DQEBAQUA
A4IBDwAwggEKAoIBAQDVs0Yo//vxkecWmFnhFz21jCgIwjn608vpVusnakE8hiLI
nZsKQK5Fq2ZGYJY8DJbzJLhHO+gNYhHtywf/7nPCP47CmDg2o8TvnKFVu+2DKE4y
Rx155rD1gj7LyATlqENVBKfcKLePOmmRoaIpoIOfTteq9Cy5RoUYshw+GjPSYvzT
zGkZYi4rThzIc5ncoOaZ70TwOKpkhFZGln3/IPiFxUkc8SOX1nr6GRZ7SwYjDFbO
2PyzlNsqT5Dp7M15xmL9CSHlw47IyZ2ScB2rFiYzblHSeS83igDBnUA1c4NILTWS
xMKBGbAAHOB3Om9eCqbjFuSlTNkVLN9O3AFjiU9BAgMBAAGjgaIwgZ8wCQYDVR0T
BAIwADAdBgNVHQ4EFgQUCMmKisBPv34HpvPk1fKB/OGfHhYwUQYDVR0jBEowSIAU
C8z1BfpgG2yMXjGgE7nxyss5Op+hGqQYMBYxFDASBgNVBAMMC0Vhc3ktUlNBIENB
ghQob3+hEYHuGNbGbenAYg1iaFCgVzATBgNVHSUEDDAKBggrBgEFBQcDAjALBgNV
HQ8EBAMCB4AwDQYJKoZIhvcNAQELBQADggEBAK0OGE96vtKTBNs1pPCJ3K7M/sK5
KkRxpU/XUSv9a8nszpcv5k5EzJ6Jc3vcyroJm6qqlHikMy1PfqQIha8w8efqQQ/w
nwIg60QD/iB++bFIIsQcT12qsRK4ev6xvxGS69Gp15cYX6WArQCC+pIhqmB0b8mq
D/9pzcE1uJMRQJHHD3friVwjoHJa3R/9+1jr7+WjgO09CljgeW+v6PRtYa8sFdLl
ajwWxSqsfAOHGdtwUguDpWcq4puRd0cYbYHBdYUNXMosng6MNUZv/MHmWiMsLJGT
Gx93w4F5zXsaQL5AC8JjulMsOTIRO1W6wgYVJPVnJhplqY23F/CZxFsaXo4=
-----END CERTIFICATE-----
